target datalayout = "e-m:e-p270:32:32-p271:32:32-p272:64:64-i64:64-i128:128-f80:128-n8:16:32:64-S128"
target triple = "x86_64-pc-linux-gnu"

%struct.expert_field = type { i32, i32 }

@hf_nan_attr_reserved = internal global i32 0, align 4
@hf_nan_attr_pairing_bootstrapping_dialog_token = internal global i32 0, align 4
@hf_nan_attr_pairing_bootstrapping_type_status = internal global i32 0, align 4
@hf_nan_attr_pairing_bootstrapping_comeback_after = internal global i32 0, align 4
@hf_nan_attr_pairing_bootstrapping_comeback_cookie_len = internal global i32 0, align 4
@hf_nan_attr_pairing_bootstrapping_comeback_cookie = internal global i32 0, align 4
@hf_nan_attr_pairing_bootstrapping_methods = internal global i32 0, align 4
@ett_nan_pairing_bootstrapping_type_status = internal global i32 0, align 4
@ett_nan_pairing_bootstrapping_method = internal global i32 0, align 4
@ei_nan_elem_len_invalid = internal global %struct.expert_field zeroinitializer, align 4
@dissect_attr_nan_pairing_bootstrapping.type_and_status_fields = internal constant [3 x ptr] [ptr @hf_nan_attr_pairing_bootstrapping_type, ptr @hf_nan_attr_pairing_bootstrapping_status, ptr null], align 16
@hf_nan_attr_pairing_bootstrapping_resaon_code = internal global i32 0, align 4

; Function Attrs: null_pointer_is_valid sspstrong uwtable
define internal void @dissect_attr_nan_pairing_bootstrapping(ptr noundef %0, ptr noundef %1, i32 noundef %2, i16 noundef zeroext %3, ptr noundef %4) #0 {
  %6 = alloca ptr, align 8
  %7 = alloca ptr, align 8
  %8 = alloca i32, align 4
  %9 = alloca i16, align 2
  %10 = alloca ptr, align 8
  %11 = alloca i32, align 4
  %12 = alloca i8, align 1
  %13 = alloca i8, align 1
  %14 = alloca i8, align 1
  %15 = alloca i8, align 1
  %16 = alloca i8, align 1
  %17 = alloca i8, align 1
  store ptr %0, ptr %6, align 8
  store ptr %1, ptr %7, align 8
  store i32 %2, ptr %8, align 4
  store i16 %3, ptr %9, align 2
  store ptr %4, ptr %10, align 8
  %18 = load i16, ptr %9, align 2
  %19 = zext i16 %18 to i32
  %20 = icmp slt i32 %19, 5
  br i1 %20, label %21, label %25

21:                                               ; preds = %5
  %22 = load ptr, ptr %10, align 8
  %23 = load ptr, ptr %6, align 8
  %24 = call ptr @expert_add_info(ptr noundef %22, ptr noundef %23, ptr noundef @ei_nan_elem_len_invalid)
  br label %157

25:                                               ; preds = %5
  call void @llvm.lifetime.start.p0(i64 4, ptr %11) #5
  %26 = load i32, ptr %8, align 4
  %27 = add i32 %26, 3
  store i32 %27, ptr %11, align 4
  %28 = load ptr, ptr %6, align 8
  %29 = load i32, ptr @hf_nan_attr_pairing_bootstrapping_dialog_token, align 4
  %30 = load ptr, ptr %7, align 8
  %31 = load i32, ptr %11, align 4
  %32 = call ptr @proto_tree_add_item(ptr noundef %28, i32 noundef %29, ptr noundef %30, i32 noundef %31, i32 noundef 1, i32 noundef -2147483648)
  %33 = load i32, ptr %11, align 4
  %34 = add i32 %33, 1
  store i32 %34, ptr %11, align 4
  call void @llvm.lifetime.start.p0(i64 1, ptr %12) #5
  %35 = load ptr, ptr %7, align 8
  %36 = load i32, ptr %11, align 4
  %37 = call zeroext i8 @tvb_get_uint8(ptr noundef %35, i32 noundef %36)
  store i8 %37, ptr %12, align 1
  call void @llvm.lifetime.start.p0(i64 1, ptr %13) #5
  %38 = load i8, ptr %12, align 1
  %39 = zext i8 %38 to i32
  %40 = and i32 %39, 15
  %41 = trunc i32 %40 to i8
  store i8 %41, ptr %13, align 1
  call void @llvm.lifetime.start.p0(i64 1, ptr %14) #5
  %42 = load i8, ptr %12, align 1
  %43 = zext i8 %42 to i32
  %44 = and i32 %43, 240
  %45 = ashr i32 %44, 4
  %46 = trunc i32 %45 to i8
  store i8 %46, ptr %14, align 1
  %47 = load ptr, ptr %6, align 8
  %48 = load ptr, ptr %7, align 8
  %49 = load i32, ptr %11, align 4
  %50 = load i32, ptr @hf_nan_attr_pairing_bootstrapping_type_status, align 4
  %51 = load i32, ptr @ett_nan_pairing_bootstrapping_type_status, align 4
  %52 = call ptr @proto_tree_add_bitmask(ptr noundef %47, ptr noundef %48, i32 noundef %49, i32 noundef %50, i32 noundef %51, ptr noundef @dissect_attr_nan_pairing_bootstrapping.type_and_status_fields, i32 noundef -2147483648)
  %53 = load i32, ptr %11, align 4
  %54 = add i32 %53, 1
  store i32 %54, ptr %11, align 4
  %55 = load i8, ptr %13, align 1
  %56 = zext i8 %55 to i32
  %57 = icmp eq i32 %56, 2
  br i1 %57, label %58, label %68

58:                                               ; preds = %25
  %59 = load i8, ptr %14, align 1
  %60 = zext i8 %59 to i32
  %61 = icmp eq i32 %60, 1
  br i1 %61, label %62, label %68

62:                                               ; preds = %58
  %63 = load ptr, ptr %6, align 8
  %64 = load i32, ptr @hf_nan_attr_pairing_bootstrapping_resaon_code, align 4
  %65 = load ptr, ptr %7, align 8
  %66 = load i32, ptr %11, align 4
  %67 = call ptr @proto_tree_add_item(ptr noundef %63, i32 noundef %64, ptr noundef %65, i32 noundef %66, i32 noundef 1, i32 noundef -2147483648)
  br label %74

68:                                               ; preds = %58, %25
  %69 = load ptr, ptr %6, align 8
  %70 = load i32, ptr @hf_nan_attr_reserved, align 4
  %71 = load ptr, ptr %7, align 8
  %72 = load i32, ptr %11, align 4
  %73 = call ptr @proto_tree_add_item(ptr noundef %69, i32 noundef %70, ptr noundef %71, i32 noundef %72, i32 noundef 1, i32 noundef 0)
  br label %74

74:                                               ; preds = %68, %62
  %75 = load i32, ptr %11, align 4
  %76 = add i32 %75, 1
  store i32 %76, ptr %11, align 4
  call void @llvm.lifetime.start.p0(i64 1, ptr %15) #5
  %77 = load i16, ptr %9, align 2
  %78 = zext i16 %77 to i32
  %79 = icmp sgt i32 %78, 5
  %80 = zext i1 %79 to i8
  store i8 %80, ptr %15, align 1
  call void @llvm.lifetime.start.p0(i64 1, ptr %16) #5
  %81 = load i8, ptr %15, align 1, !range !16, !noundef !17
  %82 = trunc i8 %81 to i1
  br i1 %82, label %83, label %93

83:                                               ; preds = %74
  %84 = load i8, ptr %13, align 1
  %85 = zext i8 %84 to i32
  %86 = icmp eq i32 %85, 2
  br i1 %86, label %87, label %91

87:                                               ; preds = %83
  %88 = load i8, ptr %14, align 1
  %89 = zext i8 %88 to i32
  %90 = icmp eq i32 %89, 2
  br label %91

91:                                               ; preds = %87, %83
  %92 = phi i1 [ false, %83 ], [ %90, %87 ]
  br label %93

93:                                               ; preds = %91, %74
  %94 = phi i1 [ false, %74 ], [ %92, %91 ]
  %95 = zext i1 %94 to i8
  store i8 %95, ptr %16, align 1
  %96 = load i8, ptr %16, align 1, !range !16, !noundef !17
  %97 = trunc i8 %96 to i1
  br i1 %97, label %98, label %106

98:                                               ; preds = %93
  %99 = load ptr, ptr %6, align 8
  %100 = load i32, ptr @hf_nan_attr_pairing_bootstrapping_comeback_after, align 4
  %101 = load ptr, ptr %7, align 8
  %102 = load i32, ptr %11, align 4
  %103 = call ptr @proto_tree_add_item(ptr noundef %99, i32 noundef %100, ptr noundef %101, i32 noundef %102, i32 noundef 2, i32 noundef -2147483648)
  %104 = load i32, ptr %11, align 4
  %105 = add i32 %104, 2
  store i32 %105, ptr %11, align 4
  br label %106

106:                                              ; preds = %98, %93
  %107 = load i8, ptr %15, align 1, !range !16, !noundef !17
  %108 = trunc i8 %107 to i1
  br i1 %108, label %109, label %135

109:                                              ; preds = %106
  call void @llvm.lifetime.start.p0(i64 1, ptr %17) #5
  %110 = load ptr, ptr %7, align 8
  %111 = load i32, ptr %11, align 4
  %112 = call zeroext i8 @tvb_get_uint8(ptr noundef %110, i32 noundef %111)
  store i8 %112, ptr %17, align 1
  %113 = load ptr, ptr %6, align 8
  %114 = load i32, ptr @hf_nan_attr_pairing_bootstrapping_comeback_cookie_len, align 4
  %115 = load ptr, ptr %7, align 8
  %116 = load i32, ptr %11, align 4
  %117 = call ptr @proto_tree_add_item(ptr noundef %113, i32 noundef %114, ptr noundef %115, i32 noundef %116, i32 noundef 1, i32 noundef -2147483648)
  %118 = load i32, ptr %11, align 4
  %119 = add i32 %118, 1
  store i32 %119, ptr %11, align 4
  %120 = load i8, ptr %17, align 1
  %121 = icmp ne i8 %120, 0
  br i1 %121, label %122, label %134

122:                                              ; preds = %109
  %123 = load ptr, ptr %6, align 8
  %124 = load i32, ptr @hf_nan_attr_pairing_bootstrapping_comeback_cookie, align 4
  %125 = load ptr, ptr %7, align 8
  %126 = load i32, ptr %11, align 4
  %127 = load i8, ptr %17, align 1
  %128 = zext i8 %127 to i32
  %129 = call ptr @proto_tree_add_item(ptr noundef %123, i32 noundef %124, ptr noundef %125, i32 noundef %126, i32 noundef %128, i32 noundef 0)
  %130 = load i8, ptr %17, align 1
  %131 = zext i8 %130 to i32
  %132 = load i32, ptr %11, align 4
  %133 = add i32 %132, %131
  store i32 %133, ptr %11, align 4
  br label %134

134:                                              ; preds = %122, %109
  call void @llvm.lifetime.end.p0(i64 1, ptr %17) #5
  br label %135

135:                                              ; preds = %134, %106
  %136 = load i8, ptr %13, align 1
  %137 = zext i8 %136 to i32
  %138 = icmp eq i32 %137, 2
  br i1 %138, label %139, label %149

139:                                              ; preds = %135
  %140 = load i8, ptr %14, align 1
  %141 = zext i8 %140 to i32
  %142 = icmp ne i32 %141, 0
  br i1 %142, label %143, label %149

143:                                              ; preds = %139
  %144 = load ptr, ptr %6, align 8
  %145 = load i32, ptr @hf_nan_attr_reserved, align 4
  %146 = load ptr, ptr %7, align 8
  %147 = load i32, ptr %11, align 4
  %148 = call ptr @proto_tree_add_item(ptr noundef %144, i32 noundef %145, ptr noundef %146, i32 noundef %147, i32 noundef 2, i32 noundef 0)
  br label %156

149:                                              ; preds = %139, %135
  %150 = load ptr, ptr %6, align 8
  %151 = load ptr, ptr %7, align 8
  %152 = load i32, ptr %11, align 4
  %153 = load i32, ptr @hf_nan_attr_pairing_bootstrapping_methods, align 4
  %154 = load i32, ptr @ett_nan_pairing_bootstrapping_method, align 4
  %155 = call ptr @proto_tree_add_bitmask(ptr noundef %150, ptr noundef %151, i32 noundef %152, i32 noundef %153, i32 noundef %154, ptr noundef @dissect_attr_nan_pairing_bootstrapping.pairing_bootstrapping_method, i32 noundef -2147483648)
  br label %156

156:                                              ; preds = %149, %143
  call void @llvm.lifetime.end.p0(i64 1, ptr %16) #5
  call void @llvm.lifetime.end.p0(i64 1, ptr %15) #5
  call void @llvm.lifetime.end.p0(i64 1, ptr %14) #5
  call void @llvm.lifetime.end.p0(i64 1, ptr %13) #5
  call void @llvm.lifetime.end.p0(i64 1, ptr %12) #5
  call void @llvm.lifetime.end.p0(i64 4, ptr %11) #5
  br label %157

157:                                              ; preds = %156, %21
  ret void
}