; Function Attrs: null_pointer_is_valid sspstrong uwtable
define internal fastcc void @dissect_attr_nan_pairing_bootstrapping(ptr noundef %0, ptr noundef %1, i32 noundef %2, i16 noundef zeroext %3, ptr noundef %4) unnamed_addr #0 {
  %6 = icmp ult i16 %3, 5
  br i1 %6, label %7, label %9

7:                                                ; preds = %5
  %8 = tail call ptr @expert_add_info(ptr noundef %4, ptr noundef %0, ptr noundef nonnull @ei_nan_elem_len_invalid)
  br label %54

9:                                                ; preds = %5
  %10 = add i32 %2, 3
  %11 = load i32, ptr @hf_nan_attr_pairing_bootstrapping_dialog_token, align 4
  %12 = tail call ptr @proto_tree_add_item(ptr noundef %0, i32 noundef %11, ptr noundef %1, i32 noundef %10, i32 noundef 1, i32 noundef -2147483648)
  %13 = add i32 %2, 4
  %14 = tail call zeroext i8 @tvb_get_uint8(ptr noundef %1, i32 noundef %13)
  %15 = and i8 %14, 15
  %16 = lshr i8 %14, 4
  %17 = load i32, ptr @hf_nan_attr_pairing_bootstrapping_type_status, align 4
  %18 = load i32, ptr @ett_nan_pairing_bootstrapping_type_status, align 4
  %19 = tail call ptr @proto_tree_add_bitmask(ptr noundef %0, ptr noundef %1, i32 noundef %13, i32 noundef %17, i32 noundef %18, ptr noundef nonnull @dissect_attr_nan_pairing_bootstrapping.type_and_status_fields, i32 noundef -2147483648)
  %20 = add i32 %2, 5
  %21 = icmp eq i8 %15, 2
  %22 = icmp eq i8 %16, 1
  %or.cond = and i1 %21, %22
  br i1 %or.cond, label %.thread, label %25

.thread:                                          ; preds = %9
  %23 = tail call ptr @proto_tree_add_item(ptr noundef %0, i32 noundef 0, ptr noundef %1, i32 noundef %20, i32 noundef 1, i32 noundef -2147483648)
  %24 = add i32 %2, 6
  %.not65 = icmp eq i16 %3, 5
  br i1 %.not65, label %45, label %35

25:                                               ; preds = %9
  %26 = load i32, ptr @hf_nan_attr_reserved, align 4
  %27 = tail call ptr @proto_tree_add_item(ptr noundef %0, i32 noundef %26, ptr noundef %1, i32 noundef %20, i32 noundef 1, i32 noundef 0)
  %28 = add i32 %2, 6
  %.not = icmp ne i16 %3, 5
  %29 = icmp eq i8 %16, 2
  %30 = and i1 %21, %29
  %or.cond64 = select i1 %.not, i1 %30, i1 false
  br i1 %or.cond64, label %31, label %.critedge

31:                                               ; preds = %25
  %32 = load i32, ptr @hf_nan_attr_pairing_bootstrapping_comeback_after, align 4
  %33 = tail call ptr @proto_tree_add_item(ptr noundef %0, i32 noundef %32, ptr noundef %1, i32 noundef %28, i32 noundef 2, i32 noundef -2147483648)
  %34 = add i32 %2, 8
  br label %35

.critedge:                                        ; preds = %25
  br i1 %.not, label %35, label %45

35:                                               ; preds = %31, %.thread, %.critedge
  %.069 = phi i32 [ %34, %31 ], [ %28, %.critedge ], [ %24, %.thread ]
  %36 = tail call zeroext i8 @tvb_get_uint8(ptr noundef %1, i32 noundef %.069)
  %37 = load i32, ptr @hf_nan_attr_pairing_bootstrapping_comeback_cookie_len, align 4
  %38 = tail call ptr @proto_tree_add_item(ptr noundef %0, i32 noundef %37, ptr noundef %1, i32 noundef %.069, i32 noundef 1, i32 noundef -2147483648)
  %39 = add i32 %.069, 1
  %.not62 = icmp eq i8 %36, 0
  br i1 %.not62, label %45, label %40

40:                                               ; preds = %35
  %41 = load i32, ptr @hf_nan_attr_pairing_bootstrapping_comeback_cookie, align 4
  %42 = zext i8 %36 to i32
  %43 = tail call ptr @proto_tree_add_item(ptr noundef %0, i32 noundef %41, ptr noundef %1, i32 noundef %39, i32 noundef %42, i32 noundef 0)
  %44 = add i32 %39, %42
  br label %45

45:                                               ; preds = %.thread, %35, %40, %.critedge
  %.1 = phi i32 [ %28, %.critedge ], [ %44, %40 ], [ %39, %35 ], [ %24, %.thread ]
  %46 = icmp ugt i8 %14, 15
  %or.cond5 = and i1 %46, %21
  br i1 %or.cond5, label %47, label %50

47:                                               ; preds = %45
  %48 = load i32, ptr @hf_nan_attr_reserved, align 4
  %49 = tail call ptr @proto_tree_add_item(ptr noundef %0, i32 noundef %48, ptr noundef %1, i32 noundef %.1, i32 noundef 2, i32 noundef 0)
  br label %54

50:                                               ; preds = %45
  %51 = load i32, ptr @hf_nan_attr_pairing_bootstrapping_methods, align 4
  %52 = load i32, ptr @ett_nan_pairing_bootstrapping_method, align 4
  %53 = tail call ptr @proto_tree_add_bitmask(ptr noundef %0, ptr noundef %1, i32 noundef %.1, i32 noundef %51, i32 noundef %52, ptr noundef nonnull @dissect_attr_nan_pairing_bootstrapping.pairing_bootstrapping_method, i32 noundef -2147483648)
  br label %54

54:                                               ; preds = %47, %50, %7
  ret void
}